; Function Attrs: mustprogress uwtable
define noundef zeroext i1 @_ZN5arrow8internal14SerialExecutor10IsFinishedEv(ptr noundef nonnull readonly align 8 captures(none) dereferenceable(24) %0) local_unnamed_addr #3 align 2 personality ptr @__gxx_personality_v0 {
  %2 = getelementptr inbounds nuw i8, ptr %0, i64 8
  %3 = load ptr, ptr %2, align 8, !tbaa !38
  %4 = getelementptr inbounds nuw i8, ptr %3, i64 40
  %5 = tail call noundef i32 @pthread_mutex_lock(ptr noundef nonnull align 8 dereferenceable(40) %4) #33
  %.not.i.i = icmp eq i32 %5, 0
  br i1 %.not.i.i, label %_ZNSt10lock_guardISt5mutexEC2ERS0_.exit, label %6

6:                                                ; preds = %1
  tail call void @_ZSt20__throw_system_errori(i32 noundef %5) #34
  unreachable

_ZNSt10lock_guardISt5mutexEC2ERS0_.exit:          ; preds = %1
  %7 = load ptr, ptr %2, align 8, !tbaa !38
  %8 = getelementptr inbounds nuw i8, ptr %7, i64 137
  %9 = load i8, ptr %8, align 1, !tbaa !32, !range !46, !noundef !47
  %10 = trunc nuw i8 %9 to i1
  %11 = tail call noundef i32 @pthread_mutex_unlock(ptr noundef nonnull align 8 dereferenceable(40) %4) #33
  ret i1 %10
}